target datalayout = "e-m:e-p270:32:32-p271:32:32-p272:64:64-i64:64-i128:128-f80:128-n8:16:32:64-S128"
target triple = "x86_64-pc-linux-gnu"

%struct.PyVarObject = type { %struct._object, i64 }
%struct._object = type { i64, ptr }
%struct._longobject = type { %struct.PyVarObject, [1 x i32] }
%struct.py_annoy = type { %struct._object, i32, ptr }

@PyExc_IOError = external global ptr, align 8
@_Py_TrueStruct = external global %struct._longobject, align 8
@_ZZL19py_an_on_disk_buildP8py_annoyP7_objectS2_E6kwlist = internal global [2 x ptr] [ptr @.str.36, ptr null], align 16
@.str.48 = private unnamed_addr constant [2 x i8] c"s\00", align 1

; Function Attrs: inlinehint mustprogress nounwind sspstrong uwtable
define internal void @_ZL10_Py_INCREFP7_object(ptr noundef %0) #6 {
  %2 = alloca ptr, align 8
  store ptr %0, ptr %2, align 8, !tbaa !14
  %3 = load ptr, ptr %2, align 8, !tbaa !14
  %4 = getelementptr inbounds nuw %struct._object, ptr %3, i32 0, i32 0
  %5 = load i64, ptr %4, align 8, !tbaa !45
  %6 = add i64 %5, 1
  store i64 %6, ptr %4, align 8, !tbaa !45
  ret void
}

; Function Attrs: inlinehint mustprogress sspstrong uwtable
define internal noundef ptr @_ZL10_Py_NewRefP7_object(ptr noundef %0) #5 {
  %2 = alloca ptr, align 8
  store ptr %0, ptr %2, align 8, !tbaa !14
  %3 = load ptr, ptr %2, align 8, !tbaa !14
  call void @_ZL10_Py_INCREFP7_object(ptr noundef %3)
  %4 = load ptr, ptr %2, align 8, !tbaa !14
  ret ptr %4
}

; Function Attrs: mustprogress sspstrong uwtable
define internal noundef ptr @_ZL19py_an_on_disk_buildP8py_annoyP7_objectS2_(ptr noundef %0, ptr noundef %1, ptr noundef %2) #2 {
  %4 = alloca ptr, align 8
  %5 = alloca ptr, align 8
  %6 = alloca ptr, align 8
  %7 = alloca ptr, align 8
  %8 = alloca ptr, align 8
  %9 = alloca ptr, align 8
  %10 = alloca i32, align 4
  store ptr %0, ptr %5, align 8, !tbaa !31
  store ptr %1, ptr %6, align 8, !tbaa !14
  store ptr %2, ptr %7, align 8, !tbaa !14
  call void @llvm.lifetime.start.p0(i64 8, ptr %8) #28
  call void @llvm.lifetime.start.p0(i64 8, ptr %9) #28
  %11 = load ptr, ptr %5, align 8, !tbaa !31
  %12 = getelementptr inbounds nuw %struct.py_annoy, ptr %11, i32 0, i32 2
  %13 = load ptr, ptr %12, align 8, !tbaa !36
  %14 = icmp ne ptr %13, null
  br i1 %14, label %16, label %15

15:                                               ; preds = %3
  store ptr null, ptr %4, align 8
  store i32 1, ptr %10, align 4
  br label %37

16:                                               ; preds = %3
  %17 = load ptr, ptr %6, align 8, !tbaa !14
  %18 = load ptr, ptr %7, align 8, !tbaa !14
  %19 = call i32 (ptr, ptr, ptr, ptr, ...) @PyArg_ParseTupleAndKeywords(ptr noundef %17, ptr noundef %18, ptr noundef @.str.48, ptr noundef @_ZZL19py_an_on_disk_buildP8py_annoyP7_objectS2_E6kwlist, ptr noundef %8)
  %20 = icmp ne i32 %19, 0
  br i1 %20, label %22, label %21

21:                                               ; preds = %16
  store ptr null, ptr %4, align 8
  store i32 1, ptr %10, align 4
  br label %37

22:                                               ; preds = %16
  %23 = load ptr, ptr %5, align 8, !tbaa !31
  %24 = getelementptr inbounds nuw %struct.py_annoy, ptr %23, i32 0, i32 2
  %25 = load ptr, ptr %24, align 8, !tbaa !36
  %26 = load ptr, ptr %8, align 8, !tbaa !54
  %27 = load ptr, ptr %25, align 8, !tbaa !40
  %28 = getelementptr inbounds ptr, ptr %27, i64 16
  %29 = load ptr, ptr %28, align 8
  %30 = call noundef zeroext i1 %29(ptr noundef nonnull align 8 dereferenceable(8) %25, ptr noundef %26, ptr noundef %9)
  br i1 %30, label %35, label %31

31:                                               ; preds = %22
  %32 = load ptr, ptr @PyExc_IOError, align 8, !tbaa !14
  %33 = load ptr, ptr %9, align 8, !tbaa !54
  call void @PyErr_SetString(ptr noundef %32, ptr noundef %33)
  %34 = load ptr, ptr %9, align 8, !tbaa !54
  call void @free(ptr noundef %34) #28
  store ptr null, ptr %4, align 8
  store i32 1, ptr %10, align 4
  br label %37

35:                                               ; preds = %22
  %36 = call noundef ptr @_ZL10_Py_NewRefP7_object(ptr noundef @_Py_TrueStruct)
  store ptr %36, ptr %4, align 8
  store i32 1, ptr %10, align 4
  br label %37

37:                                               ; preds = %35, %31, %21, %15
  call void @llvm.lifetime.end.p0(i64 8, ptr %9) #28
  call void @llvm.lifetime.end.p0(i64 8, ptr %8) #28
  %38 = load ptr, ptr %4, align 8
  ret ptr %38
}