; Function Attrs: mustprogress sspstrong uwtable
define internal noundef ptr @_ZL19py_an_on_disk_buildP8py_annoyP7_objectS2_(ptr noundef readonly captures(none) %0, ptr noundef %1, ptr noundef %2) #2 {
  %4 = alloca ptr, align 8
  %5 = alloca ptr, align 8
  call void @llvm.lifetime.start.p0(i64 8, ptr nonnull %4) #33
  call void @llvm.lifetime.start.p0(i64 8, ptr nonnull %5) #33
  %6 = getelementptr inbounds nuw i8, ptr %0, i64 24
  %7 = load ptr, ptr %6, align 8, !tbaa !25
  %.not = icmp eq ptr %7, null
  br i1 %.not, label %24, label %8

8:                                                ; preds = %3
  %9 = call i32 (ptr, ptr, ptr, ptr, ...) @PyArg_ParseTupleAndKeywords(ptr noundef %1, ptr noundef %2, ptr noundef nonnull @.str.48, ptr noundef nonnull @_ZZL19py_an_on_disk_buildP8py_annoyP7_objectS2_E6kwlist, ptr noundef nonnull %4)
  %.not5 = icmp eq i32 %9, 0
  br i1 %.not5, label %24, label %10

10:                                               ; preds = %8
  %11 = load ptr, ptr %6, align 8, !tbaa !25
  %12 = load ptr, ptr %4, align 8, !tbaa !41
  %13 = load ptr, ptr %11, align 8, !tbaa !28
  %14 = getelementptr inbounds nuw i8, ptr %13, i64 128
  %15 = load ptr, ptr %14, align 8
  %16 = call noundef zeroext i1 %15(ptr noundef nonnull align 8 dereferenceable(8) %11, ptr noundef %12, ptr noundef nonnull %5)
  br i1 %16, label %21, label %17

17:                                               ; preds = %10
  %18 = load ptr, ptr @PyExc_IOError, align 8, !tbaa !30
  %19 = load ptr, ptr %5, align 8, !tbaa !41
  call void @PyErr_SetString(ptr noundef %18, ptr noundef %19)
  %20 = load ptr, ptr %5, align 8, !tbaa !41
  call void @free(ptr noundef %20) #33
  br label %24

21:                                               ; preds = %10
  %22 = load i64, ptr @_Py_TrueStruct, align 8, !tbaa !21
  %23 = add i64 %22, 1
  store i64 %23, ptr @_Py_TrueStruct, align 8, !tbaa !21
  br label %24

24:                                               ; preds = %8, %3, %21, %17
  %.0 = phi ptr [ @_Py_TrueStruct, %21 ], [ null, %17 ], [ null, %3 ], [ null, %8 ]
  call void @llvm.lifetime.end.p0(i64 8, ptr nonnull %5) #33
  call void @llvm.lifetime.end.p0(i64 8, ptr nonnull %4) #33
  ret ptr %.0
}